target datalayout = "e-m:e-p270:32:32-p271:32:32-p272:64:64-i64:64-i128:128-f80:128-n8:16:32:64-S128"
target triple = "x86_64-pc-linux-gnu"

%struct.gres_device_id_t = type { i32, i32, i32 }

@.str.91 = private unnamed_addr constant [13 x i8] c"%c %u:%u rwm\00", align 1

; Function Attrs: nounwind uwtable
define dso_local ptr @gres_device_id2str(ptr noundef %0) #0 {
  %2 = alloca ptr, align 8
  %3 = alloca ptr, align 8
  store ptr %0, ptr %2, align 8
  call void @llvm.lifetime.start.p0(i64 8, ptr %3) #11
  store ptr null, ptr %3, align 8
  %4 = load ptr, ptr %2, align 8
  %5 = getelementptr inbounds nuw %struct.gres_device_id_t, ptr %4, i32 0, i32 2
  %6 = load i32, ptr %5, align 4
  %7 = icmp eq i32 %6, 1
  %8 = select i1 %7, i32 98, i32 99
  %9 = load ptr, ptr %2, align 8
  %10 = getelementptr inbounds nuw %struct.gres_device_id_t, ptr %9, i32 0, i32 0
  %11 = load i32, ptr %10, align 4
  %12 = load ptr, ptr %2, align 8
  %13 = getelementptr inbounds nuw %struct.gres_device_id_t, ptr %12, i32 0, i32 1
  %14 = load i32, ptr %13, align 4
  call void (ptr, ptr, ...) @_xstrfmtcat(ptr noundef %3, ptr noundef @.str.91, i32 noundef %8, i32 noundef %11, i32 noundef %14)
  %15 = load ptr, ptr %3, align 8
  call void @llvm.lifetime.end.p0(i64 8, ptr %3) #11
  ret ptr %15
}