; Function Attrs: nounwind uwtable
define dso_local ptr @gres_device_id2str(ptr noundef readonly captures(none) %0) local_unnamed_addr #2 {
  %2 = alloca ptr, align 8
  call void @llvm.lifetime.start.p0(i64 8, ptr nonnull %2) #28
  store ptr null, ptr %2, align 8
  %3 = getelementptr inbounds nuw i8, ptr %0, i64 8
  %4 = load i32, ptr %3, align 4
  %5 = icmp eq i32 %4, 1
  %6 = select i1 %5, i32 98, i32 99
  %7 = load i32, ptr %0, align 4
  %8 = getelementptr inbounds nuw i8, ptr %0, i64 4
  %9 = load i32, ptr %8, align 4
  call void (ptr, ptr, ...) @_xstrfmtcat(ptr noundef nonnull %2, ptr noundef nonnull @.str.91, i32 noundef %6, i32 noundef %7, i32 noundef %9) #28
  %10 = load ptr, ptr %2, align 8
  call void @llvm.lifetime.end.p0(i64 8, ptr nonnull %2) #28
  ret ptr %10
}